(dp0
S'METTS MARK'
p1
(dp2
S'to_messages'
p3
I807
sS'deferral_payments'
p4
S'NaN'
p5
sS'expenses'
p6
I94299
sS'poi'
p7
I00
sS'xpayout'
p8
F1646889.0
sS'deferred_income'
p9
g5
sS'email_address'
p10
S'mark.metts@enron.com'
p11
sS'long_term_incentive'
p12
g5
sS'restricted_stock_deferred'
p13
g5
sS'shared_receipt_with_poi'
p14
I702
sS'loan_advances'
p15
g5
sS'from_messages'
p16
I29
sS'other'
p17
I1740
sS'director_fees'
p18
g5
sS'bonus'
p19
I600000
sS'total_stock_value'
p20
I585062
sS'from_poi_to_this_person'
p21
I38
sS'xfrom_to_poi'
p22
F19.0
sS'from_this_person_to_poi'
p23
I1
sS'restricted_stock'
p24
I585062
sS'salary'
p25
I365788
sS'total_payments'
p26
I1061827
sS'exercised_stock_options'
p27
g5
sS'xsalary_to_stockvalue'
p28
F0.625212370654734
sS'xto_receipt_poi'
p29
F0.0014245014245014246
ssS'BAXTER JOHN C'
p30
(dp31
g3
g5
sg4
I1295738
sg6
I11200
sg7
I00
sg8
F16257601.0
sg9
I-1386055
sg10
g5
sg12
I1586055
sg13
g5
sg14
g5
sg15
g5
sg16
g5
sg17
I2660303
sg18
g5
sg19
I1200000
sg20
I10623258
sg21
g5
sg22
S'NaN'
p32
sg23
g5
sg24
I3942714
sg25
I267102
sg26
I5634343
sg27
I6680544
sg28
F0.025143134055484673
sg29
g32
ssS'ELLIOTT STEVEN'
p33
(dp34
g3
g5
sg4
g5
sg6
I78552
sg7
I00
sg8
F6890460.0
sg9
I-400729
sg10
S'steven.elliott@enron.com'
p35
sg12
g5
sg13
g5
sg14
g5
sg15
g5
sg16
g5
sg17
I12961
sg18
g5
sg19
I350000
sg20
I6678735
sg21
g5
sg22
g32
sg23
g5
sg24
I1788391
sg25
I170941
sg26
I211725
sg27
I4890344
sg28
F0.025594816982557327
sg29
g32
ssS'CORDES WILLIAM R'
p36
(dp37
g3
I764
sg4
g5
sg6
g5
sg7
I00
sg8
Fnan
sg9
g5
sg10
S'bill.cordes@enron.com'
p38
sg12
g5
sg13
g5
sg14
I58
sg15
g5
sg16
I12
sg17
g5
sg18
g5
sg19
g5
sg20
I1038185
sg21
I10
sg22
F10.0
sg23
I0
sg24
I386335
sg25
g5
sg26
g5
sg27
I651850
sg28
Fnan
sg29
F0.0
ssS'HANNON KEVIN P'
p39
(dp40
g3
I1045
sg4
g5
sg6
I34039
sg7
I01
sg8
F6679747.0
sg9
I-3117011
sg10
S'kevin.hannon@enron.com'
p41
sg12
I1617011
sg13
g5
sg14
I1035
sg15
g5
sg16
I32
sg17
I11350
sg18
g5
sg19
I1500000
sg20
I6391065
sg21
I32
sg22
F1.4545454545454546
sg23
I21
sg24
I853064
sg25
I243293
sg26
I288682
sg27
I5538001
sg28
F0.03806767729635045
sg29
F0.020289855072463767
ssS'MORDAUNT KRISTINA M'
p42
(dp43
g3
g5
sg4
g5
sg6
I35018
sg7
I00
sg8
F837032.0
sg9
g5
sg10
S'kristina.mordaunt@enron.com'
p44
sg12
g5
sg13
g5
sg14
g5
sg15
g5
sg16
g5
sg17
I1411
sg18
g5
sg19
I325000
sg20
I208510
sg21
g5
sg22
g32
sg23
g5
sg24
I208510
sg25
I267093
sg26
I628522
sg27
g5
sg28
F1.2809601457963646
sg29
g32
ssS'MEYER ROCKFORD G'
p45
(dp46
g3
I232
sg4
I1848227
sg6
g5
sg7
I00
sg8
F2804100.0
sg9
g5
sg10
S'rockford.meyer@enron.com'
p47
sg12
g5
sg13
g5
sg14
I22
sg15
g5
sg16
I28
sg17
g5
sg18
g5
sg19
g5
sg20
I955873
sg21
I0
sg22
F0.0
sg23
I0
sg24
I462384
sg25
g5
sg26
I1848227
sg27
I493489
sg28
Fnan
sg29
F0.0
ssS'MCMAHON JEFFREY'
p48
(dp49
g3
I2355
sg4
g5
sg6
I137108
sg7
I00
sg8
F5762626.0
sg9
g5
sg10
S'jeffrey.mcmahon@enron.com'
p50
sg12
I694862
sg13
g5
sg14
I2228
sg15
g5
sg16
I48
sg17
I297353
sg18
g5
sg19
I2600000
sg20
I1662855
sg21
I58
sg22
F2.1481481481481484
sg23
I26
sg24
I558801
sg25
I370448
sg26
I4099771
sg27
I1104054
sg28
F0.22277829395828258
sg29
F0.011669658886894075
ssS'HORTON STANLEY C'
p51
(dp52
g3
I2350
sg4
I3131860
sg6
g5
sg7
I00
sg8
F10388508.0
sg9
g5
sg10
S'stanley.horton@enron.com'
p53
sg12
g5
sg13
g5
sg14
I1074
sg15
g5
sg16
I1073
sg17
g5
sg18
g5
sg19
g5
sg20
I7256648
sg21
I44
sg22
F2.75
sg23
I15
sg24
I2046079
sg25
g5
sg26
I3131860
sg27
I5210569
sg28
Fnan
sg29
F0.013966480446927373
ssS'PIPER GREGORY F'
p54
(dp55
g3
I1238
sg4
I1130036
sg6
I43057
sg7
I00
sg8
F2617919.0
sg9
I-33333
sg10
S'greg.piper@enron.com'
p56
sg12
g5
sg13
I-409554
sg14
I742
sg15
g5
sg16
I222
sg17
I778
sg18
g5
sg19
I400000
sg20
I880290
sg21
I61
sg22
F1.2448979591836735
sg23
I48
sg24
I409554
sg25
I197091
sg26
I1737629
sg27
I880290
sg28
F0.2238932624476025
sg29
F0.0646900269541779
ssS'HUMPHREY GENE E'
p57
(dp58
g3
I128
sg4
I2964506
sg6
I4994
sg7
I00
sg8
F5382992.0
sg9
g5
sg10
S'gene.humphrey@enron.com'
p59
sg12
g5
sg13
g5
sg14
I119
sg15
g5
sg16
I17
sg17
g5
sg18
g5
sg19
g5
sg20
I2282768
sg21
I10
sg22
F0.5555555555555556
sg23
I17
sg24
g5
sg25
I130724
sg26
I3100224
sg27
I2282768
sg28
F0.05726556531368934
sg29
F0.14285714285714285
ssS'UMANOFF ADAM S'
p60
(dp61
g3
I111
sg4
g5
sg6
I53122
sg7
I00
sg8
Fnan
sg9
g5
sg10
S'adam.umanoff@enron.com'
p62
sg12
g5
sg13
g5
sg14
I41
sg15
g5
sg16
I18
sg17
g5
sg18
g5
sg19
I788750
sg20
g5
sg21
I12
sg22
F12.0
sg23
I0
sg24
g5
sg25
I288589
sg26
I1130461
sg27
g5
sg28
Fnan
sg29
F0.0
ssS'BLACHMAN JEREMY M'
p63
(dp64
g3
I2475
sg4
g5
sg6
I84208
sg7
I00
sg8
F2969189.0
sg9
g5
sg10
S'jeremy.blachman@enron.com'
p65
sg12
I831809
sg13
g5
sg14
I2326
sg15
g5
sg16
I14
sg17
I272
sg18
g5
sg19
I850000
sg20
I954354
sg21
I25
sg22
F8.333333333333334
sg23
I2
sg24
I189041
sg25
I248546
sg26
I2014835
sg27
I765313
sg28
F0.260433759380691
sg29
F0.0008598452278589854
ssS'SUNDE MARTIN'
p66
(dp67
g3
I2647
sg4
g5
sg6
g5
sg7
I00
sg8
F2243979.0
sg9
g5
sg10
S'marty.sunde@enron.com'
p68
sg12
I476451
sg13
g5
sg14
I2565
sg15
g5
sg16
I38
sg17
I111122
sg18
g5
sg19
I700000
sg20
I698920
sg21
I37
sg22
F2.642857142857143
sg23
I13
sg24
I698920
sg25
I257486
sg26
I1545059
sg27
g5
sg28
F0.3684055399759629
sg29
F0.0050682261208577
ssS'GIBBS DANA R'
p69
(dp70
g3
I169
sg4
I504610
sg6
g5
sg7
I00
sg8
F3184797.0
sg9
g5
sg10
S'dana.gibbs@enron.com'
p71
sg12
I461912
sg13
g5
sg14
I23
sg15
g5
sg16
I12
sg17
g5
sg18
g5
sg19
g5
sg20
I2218275
sg21
I0
sg22
F0.0
sg23
I0
sg24
g5
sg25
g5
sg26
I966522
sg27
I2218275
sg28
Fnan
sg29
F0.0
ssS'LOWRY CHARLES P'
p72
(dp73
g3
g5
sg4
g5
sg6
g5
sg7
I00
sg8
Fnan
sg9
g5
sg10
g5
sg12
g5
sg13
I-153686
sg14
g5
sg15
g5
sg16
g5
sg17
g5
sg18
g5
sg19
g5
sg20
I372205
sg21
g5
sg22
g32
sg23
g5
sg24
I153686
sg25
g5
sg26
g5
sg27
I372205
sg28
Fnan
sg29
g32
ssS'COLWELL WESLEY'
p74
(dp75
g3
I1758
sg4
I27610
sg6
I16514
sg7
I01
sg8
F2188586.0
sg9
I-144062
sg10
S'wes.colwell@enron.com'
p76
sg12
g5
sg13
g5
sg14
I1132
sg15
g5
sg16
I40
sg17
I101740
sg18
g5
sg19
I1200000
sg20
I698242
sg21
I240
sg22
F20.0
sg23
I11
sg24
I698242
sg25
I288542
sg26
I1490344
sg27
g5
sg28
F0.4132406815974977
sg29
F0.009717314487632508
ssS'MULLER MARK S'
p77
(dp78
g3
I136
sg4
I842924
sg6
g5
sg7
I00
sg8
F4618918.0
sg9
I-719000
sg10
S's..muller@enron.com'
p79
sg12
I1725545
sg13
g5
sg14
I114
sg15
g5
sg16
I16
sg17
I947
sg18
g5
sg19
I1100000
sg20
I1416848
sg21
I12
sg22
F12.0
sg23
I0
sg24
I360528
sg25
I251654
sg26
I3202070
sg27
I1056320
sg28
F0.17761538287805043
sg29
F0.0
ssS'JACKSON CHARLENE R'
p80
(dp81
g3
I258
sg4
g5
sg6
I10181
sg7
I00
sg8
F1276909.0
sg9
g5
sg10
S'charlene.jackson@enron.com'
p82
sg12
g5
sg13
g5
sg14
I117
sg15
g5
sg16
I56
sg17
I2435
sg18
g5
sg19
I250000
sg20
I725735
sg21
I25
sg22
F1.25
sg23
I19
sg24
I540672
sg25
I288558
sg26
I551174
sg27
I185063
sg28
F0.39760794229298574
sg29
F0.1623931623931624
ssS'WESTFAHL RICHARD K'
p83
(dp84
g3
g5
sg4
g5
sg6
I51870
sg7
I00
sg8
F1147065.0
sg9
I-10800
sg10
S'dick.westfahl@enron.com'
p85
sg12
I256191
sg13
g5
sg14
g5
sg15
g5
sg16
g5
sg17
I401130
sg18
g5
sg19
g5
sg20
I384930
sg21
g5
sg22
g32
sg23
g5
sg24
I384930
sg25
I63744
sg26
I762135
sg27
g5
sg28
F0.16559894006702516
sg29
g32
ssS'WALTERS GARETH W'
p86
(dp87
g3
g5
sg4
I53625
sg6
I33785
sg7
I00
sg8
F1117739.0
sg9
g5
sg10
g5
sg12
g5
sg13
g5
sg14
g5
sg15
g5
sg16
g5
sg17
g5
sg18
g5
sg19
g5
sg20
I1030329
sg21
g5
sg22
g32
sg23
g5
sg24
g5
sg25
g5
sg26
I87410
sg27
I1030329
sg28
Fnan
sg29
g32
ssS'WALLS JR ROBERT H'
p88
(dp89
g3
I671
sg4
g5
sg6
I50936
sg7
I00
sg8
F7697777.0
sg9
g5
sg10
S'rob.walls@enron.com'
p90
sg12
I540751
sg13
g5
sg14
I215
sg15
g5
sg16
I146
sg17
I2
sg18
g5
sg19
I850000
sg20
I5898997
sg21
I17
sg22
F17.0
sg23
I0
sg24
I1552453
sg25
I357091
sg26
I1798780
sg27
I4346544
sg28
F0.060534189117234675
sg29
F0.0
ssS'KITCHEN LOUISE'
p91
(dp92
g3
I8305
sg4
g5
sg6
I5774
sg7
I00
sg8
F4018284.0
sg9
g5
sg10
S'louise.kitchen@enron.com'
p93
sg12
g5
sg13
g5
sg14
I3669
sg15
g5
sg16
I1728
sg17
I93925
sg18
g5
sg19
I3100000
sg20
I547143
sg21
I251
sg22
F1.2871794871794873
sg23
I194
sg24
I466101
sg25
I271442
sg26
I3471141
sg27
I81042
sg28
F0.49610796446267247
sg29
F0.052875442899972744
ssS'CHAN RONNIE'
p94
(dp95
g3
g5
sg4
g5
sg6
g5
sg7
I00
sg8
g32
sg9
I-98784
sg10
g5
sg12
g5
sg13
I-32460
sg14
g5
sg15
g5
sg16
g5
sg17
g5
sg18
I98784
sg19
g5
sg20
g5
sg21
g5
sg22
g32
sg23
g5
sg24
I32460
sg25
g5
sg26
g5
sg27
g5
sg28
g32
sg29
g32
ssS'BELFER ROBERT'
p96
(dp97
g3
g5
sg4
I-102500
sg6
g5
sg7
I00
sg8
F58407.0
sg9
g5
sg10
g5
sg12
g5
sg13
I44093
sg14
g5
sg15
g5
sg16
g5
sg17
g5
sg18
I3285
sg19
g5
sg20
I-44093
sg21
g5
sg22
g32
sg23
g5
sg24
g5
sg25
g5
sg26
I102500
sg27
I3285
sg28
Fnan
sg29
g32
ssS'SHANKMAN JEFFREY A'
p98
(dp99
g3
I3221
sg4
g5
sg6
I178979
sg7
I00
sg8
F5110737.0
sg9
g5
sg10
S'jeffrey.shankman@enron.com'
p100
sg12
I554422
sg13
g5
sg14
I1730
sg15
g5
sg16
I2681
sg17
I1191
sg18
g5
sg19
I2000000
sg20
I2072035
sg21
I94
sg22
F1.119047619047619
sg23
I83
sg24
I630137
sg25
I304110
sg26
I3038702
sg27
I1441898
sg28
F0.14676875631927067
sg29
F0.04797687861271676
ssS'WODRASKA JOHN'
p101
(dp102
g3
g5
sg4
g5
sg6
g5
sg7
I00
sg8
Fnan
sg9
g5
sg10
S'john.wodraska@enron.com'
p103
sg12
g5
sg13
g5
sg14
g5
sg15
g5
sg16
g5
sg17
I189583
sg18
g5
sg19
g5
sg20
g5
sg21
g5
sg22
g32
sg23
g5
sg24
g5
sg25
g5
sg26
I189583
sg27
g5
sg28
g32
sg29
g32
ssS'BERGSIEKER RICHARD P'
p104
(dp105
g3
I383
sg4
g5
sg6
I59175
sg7
I00
sg8
F1278099.0
sg9
I-485813
sg10
S'rick.bergsieker@enron.com'
p106
sg12
I180250
sg13
g5
sg14
I233
sg15
g5
sg16
I59
sg17
I427316
sg18
g5
sg19
I250000
sg20
I659249
sg21
I4
sg22
F4.0
sg23
I0
sg24
I659249
sg25
I187922
sg26
I618850
sg27
g5
sg28
F0.28505466068207913
sg29
F0.0
ssS'URQUHART JOHN A'
p107
(dp108
g3
g5
sg4
g5
sg6
I228656
sg7
I00
sg8
Fnan
sg9
I-36666
sg10
g5
sg12
g5
sg13
g5
sg14
g5
sg15
g5
sg16
g5
sg17
g5
sg18
I36666
sg19
g5
sg20
g5
sg21
g5
sg22
g32
sg23
g5
sg24
g5
sg25
g5
sg26
I228656
sg27
g5
sg28
g32
sg29
g32
ssS'BIBI PHILIPPE A'
p109
(dp110
g3
I1607
sg4
g5
sg6
I38559
sg7
I00
sg8
F3891409.0
sg9
g5
sg10
S'philippe.bibi@enron.com'
p111
sg12
I369721
sg13
g5
sg14
I1336
sg15
g5
sg16
I40
sg17
I425688
sg18
g5
sg19
I1000000
sg20
I1843816
sg21
I23
sg22
F2.5555555555555554
sg23
I8
sg24
I378082
sg25
I213625
sg26
I2047593
sg27
I1465734
sg28
F0.11586025937512202
sg29
F0.005988023952095809
ssS'RIEKER PAULA H'
p112
(dp113
g3
I1328
sg4
I214678
sg6
I33271
sg7
I01
sg8
F3017987.0
sg9
I-100000
sg10
S'paula.rieker@enron.com'
p114
sg12
g5
sg13
g5
sg14
I1258
sg15
g5
sg16
I82
sg17
I1950
sg18
g5
sg19
I700000
sg20
I1918887
sg21
I35
sg22
F0.7142857142857143
sg23
I48
sg24
I283649
sg25
I249201
sg26
I1099100
sg27
I1635238
sg28
F0.12986747004904406
sg29
F0.03815580286168521
ssS'WHALEY DAVID A'
p115
(dp116
g3
g5
sg4
g5
sg6
g5
sg7
I00
sg8
Fnan
sg9
g5
sg10
g5
sg12
g5
sg13
g5
sg14
g5
sg15
g5
sg16
g5
sg17
g5
sg18
g5
sg19
g5
sg20
I98718
sg21
g5
sg22
g32
sg23
g5
sg24
g5
sg25
g5
sg26
g5
sg27
I98718
sg28
Fnan
sg29
g32
ssS'BECK SALLY W'
p117
(dp118
g3
I7315
sg4
g5
sg6
I37172
sg7
I00
sg8
F1095095.0
sg9
g5
sg10
S'sally.beck@enron.com'
p119
sg12
g5
sg13
g5
sg14
I2639
sg15
g5
sg16
I4343
sg17
I566
sg18
g5
sg19
I700000
sg20
I126027
sg21
I144
sg22
F0.37209302325581395
sg23
I386
sg24
I126027
sg25
I231330
sg26
I969068
sg27
g5
sg28
F1.8355590468709087
sg29
F0.1462675255778704
ssS'HAUG DAVID L'
p120
(dp121
g3
I573
sg4
g5
sg6
I475
sg7
I00
sg8
F2217774.0
sg9
g5
sg10
S'david.haug@enron.com'
p122
sg12
g5
sg13
g5
sg14
I471
sg15
g5
sg16
I19
sg17
g5
sg18
g5
sg19
g5
sg20
I2217299
sg21
I4
sg22
F0.5
sg23
I7
sg24
I2217299
sg25
g5
sg26
I475
sg27
g5
sg28
Fnan
sg29
F0.014861995753715499
ssS'ECHOLS JOHN B'
p123
(dp124
g3
g5
sg4
g5
sg6
I21530
sg7
I00
sg8
F3701265.0
sg9
g5
sg10
S'john.echols@enron.com'
p125
sg12
I2234774
sg13
g5
sg14
g5
sg15
g5
sg16
g5
sg17
I53775
sg18
g5
sg19
I200000
sg20
I1008941
sg21
g5
sg22
g32
sg23
g5
sg24
I407503
sg25
I182245
sg26
I2692324
sg27
I601438
sg28
F0.18062998728369647
sg29
g32
ssS'MENDELSOHN JOHN'
p126
(dp127
g3
g5
sg4
g5
sg6
I148
sg7
I00
sg8
Fnan
sg9
I-103750
sg10
g5
sg12
g5
sg13
g5
sg14
g5
sg15
g5
sg16
g5
sg17
g5
sg18
I103750
sg19
g5
sg20
g5
sg21
g5
sg22
g32
sg23
g5
sg24
g5
sg25
g5
sg26
I148
sg27
g5
sg28
g32
sg29
g32
ssS'HICKERSON GARY J'
p128
(dp129
g3
I1320
sg4
g5
sg6
I98849
sg7
I00
sg8
F2522892.0
sg9
g5
sg10
S'gary.hickerson@enron.com'
p130
sg12
I69223
sg13
g5
sg14
I900
sg15
g5
sg16
I27
sg17
I1936
sg18
g5
sg19
I1700000
sg20
I441096
sg21
I40
sg22
F20.0
sg23
I1
sg24
I441096
sg25
I211788
sg26
I2081796
sg27
g5
sg28
F0.4801403776048751
sg29
F0.0011111111111111111
ssS'CLINE KENNETH W'
p131
(dp132
g3
g5
sg4
g5
sg6
g5
sg7
I00
sg8
Fnan
sg9
g5
sg10
g5
sg12
g5
sg13
I-472568
sg14
g5
sg15
g5
sg16
g5
sg17
g5
sg18
g5
sg19
g5
sg20
I189518
sg21
g5
sg22
g32
sg23
g5
sg24
I662086
sg25
g5
sg26
g5
sg27
g5
sg28
Fnan
sg29
g32
ssS'LEWIS RICHARD'
p133
(dp134
g3
I952
sg4
g5
sg6
g5
sg7
I00
sg8
Fnan
sg9
g5
sg10
S'richard.lewis@enron.com'
p135
sg12
g5
sg13
g5
sg14
I739
sg15
g5
sg16
I26
sg17
g5
sg18
g5
sg19
g5
sg20
I850477
sg21
I10
sg22
F10.0
sg23
I0
sg24
g5
sg25
g5
sg26
g5
sg27
I850477
sg28
Fnan
sg29
F0.0
ssS'HAYES ROBERT E'
p136
(dp137
g3
I504
sg4
I7961
sg6
g5
sg7
I00
sg8
F159379.0
sg9
g5
sg10
S'robert.hayes@enron.com'
p138
sg12
g5
sg13
g5
sg14
I50
sg15
g5
sg16
I12
sg17
g5
sg18
g5
sg19
g5
sg20
I151418
sg21
I16
sg22
F16.0
sg23
I0
sg24
I151418
sg25
g5
sg26
I7961
sg27
g5
sg28
Fnan
sg29
F0.0
ssS'MCCARTY DANNY J'
p139
(dp140
g3
I1433
sg4
g5
sg6
g5
sg7
I00
sg8
Fnan
sg9
g5
sg10
S'danny.mccarty@enron.com'
p141
sg12
g5
sg13
g5
sg14
I508
sg15
g5
sg16
I215
sg17
g5
sg18
g5
sg19
g5
sg20
I758931
sg21
I25
sg22
F8.333333333333334
sg23
I2
sg24
I94556
sg25
g5
sg26
g5
sg27
I664375
sg28
Fnan
sg29
F0.003937007874015748
ssS'KOPPER MICHAEL J'
p142
(dp143
g3
g5
sg4
g5
sg6
I118134
sg7
I01
sg8
F3637644.0
sg9
g5
sg10
S'michael.kopper@enron.com'
p144
sg12
I602671
sg13
g5
sg14
g5
sg15
g5
sg16
g5
sg17
I907502
sg18
g5
sg19
I800000
sg20
I985032
sg21
g5
sg22
g32
sg23
g5
sg24
I985032
sg25
I224305
sg26
I2652612
sg27
g5
sg28
F0.2277134143865377
sg29
g32
ssS'LEFF DANIEL P'
p145
(dp146
g3
I2822
sg4
g5
sg6
g5
sg7
I00
sg8
F3024756.0
sg9
g5
sg10
S'dan.leff@enron.com'
p147
sg12
I1387399
sg13
g5
sg14
I2672
sg15
g5
sg16
I63
sg17
I3083
sg18
g5
sg19
I1000000
sg20
I360528
sg21
I67
sg22
F4.466666666666667
sg23
I14
sg24
I360528
sg25
I273746
sg26
I2664228
sg27
g5
sg28
F0.7592919273953757
sg29
F0.005239520958083832
ssS'LAVORATO JOHN J'
p148
(dp149
g3
I7259
sg4
g5
sg6
I49537
sg7
I00
sg8
F15592901.0
sg9
g5
sg10
S'john.lavorato@enron.com'
p150
sg12
I2035380
sg13
g5
sg14
I3962
sg15
g5
sg16
I2585
sg17
I1552
sg18
g5
sg19
I8000000
sg20
I5167144
sg21
I528
sg22
F1.2815533980582525
sg23
I411
sg24
I1008149
sg25
I339288
sg26
I10425757
sg27
I4158995
sg28
F0.06566257878626955
sg29
F0.10373548712771327
ssS'BERBERIAN DAVID'
p151
(dp152
g3
g5
sg4
g5
sg6
I11892
sg7
I00
sg8
F2722090.0
sg9
g5
sg10
S'david.berberian@enron.com'
p153
sg12
g5
sg13
g5
sg14
g5
sg15
g5
sg16
g5
sg17
g5
sg18
g5
sg19
g5
sg20
I2493616
sg21
g5
sg22
g32
sg23
g5
sg24
I869220
sg25
I216582
sg26
I228474
sg27
I1624396
sg28
F0.08685459188583967
sg29
g32
ssS'DETMERING TIMOTHY J'
p154
(dp155
g3
g5
sg4
I875307
sg6
I52255
sg7
I00
sg8
F3232448.0
sg9
I-775241
sg10
S'timothy.detmering@enron.com'
p156
sg12
I415657
sg13
I-315068
sg14
g5
sg15
g5
sg16
g5
sg17
I1105
sg18
g5
sg19
I425000
sg20
I2027865
sg21
g5
sg22
g32
sg23
g5
sg24
I315068
sg25
I210500
sg26
I1204583
sg27
I2027865
sg28
F0.10380375419468259
sg29
g32
ssS'WAKEHAM JOHN'
p157
(dp158
g3
g5
sg4
g5
sg6
I103773
sg7
I00
sg8
Fnan
sg9
g5
sg10
g5
sg12
g5
sg13
g5
sg14
g5
sg15
g5
sg16
g5
sg17
g5
sg18
I109298
sg19
g5
sg20
g5
sg21
g5
sg22
g32
sg23
g5
sg24
g5
sg25
g5
sg26
I213071
sg27
g5
sg28
g32
sg29
g32
ssS'POWERS WILLIAM'
p159
(dp160
g3
I653
sg4
g5
sg6
g5
sg7
I00
sg8
g32
sg9
I-17500
sg10
S'ken.powers@enron.com'
p161
sg12
g5
sg13
g5
sg14
I12
sg15
g5
sg16
I26
sg17
g5
sg18
I17500
sg19
g5
sg20
g5
sg21
I0
sg22
F0.0
sg23
I0
sg24
g5
sg25
g5
sg26
g5
sg27
g5
sg28
g32
sg29
F0.0
ssS'GOLD JOSEPH'
p162
(dp163
g3
g5
sg4
g5
sg6
g5
sg7
I00
sg8
F3024584.0
sg9
g5
sg10
S'joe.gold@enron.com'
p164
sg12
I304805
sg13
g5
sg14
g5
sg15
g5
sg16
g5
sg17
I819288
sg18
g5
sg19
I750000
sg20
I877611
sg21
g5
sg22
g32
sg23
g5
sg24
I441096
sg25
I272880
sg26
I2146973
sg27
I436515
sg28
F0.3109350270222228
sg29
g32
ssS'BANNANTINE JAMES M'
p165
(dp166
g3
I566
sg4
g5
sg6
I56301
sg7
I00
sg8
F6159684.0
sg9
I-5104
sg10
S'james.bannantine@enron.com'
p167
sg12
g5
sg13
I-560222
sg14
I465
sg15
g5
sg16
I29
sg17
I864523
sg18
g5
sg19
g5
sg20
I5243487
sg21
I39
sg22
F39.0
sg23
I0
sg24
I1757552
sg25
I477
sg26
I916197
sg27
I4046157
sg28
F9.096999763706862e-05
sg29
F0.0
ssS'DUNCAN JOHN H'
p168
(dp169
g3
g5
sg4
g5
sg6
g5
sg7
I00
sg8
F449242.0
sg9
I-25000
sg10
g5
sg12
g5
sg13
g5
sg14
g5
sg15
g5
sg16
g5
sg17
g5
sg18
I102492
sg19
g5
sg20
I371750
sg21
g5
sg22
g32
sg23
g5
sg24
g5
sg25
g5
sg26
I77492
sg27
I371750
sg28
Fnan
sg29
g32
ssS'SHAPIRO RICHARD S'
p170
(dp171
g3
I15149
sg4
g5
sg6
I137767
sg7
I00
sg8
F2044549.0
sg9
g5
sg10
S'richard.shapiro@enron.com'
p172
sg12
g5
sg13
g5
sg14
I4527
sg15
g5
sg16
I1215
sg17
I705
sg18
g5
sg19
I650000
sg20
I987001
sg21
I74
sg22
F1.121212121212121
sg23
I65
sg24
I379164
sg25
I269076
sg26
I1057548
sg27
I607837
sg28
F0.2726197845797522
sg29
F0.014358294676386128
ssS'SHERRIFF JOHN R'
p173
(dp174
g3
I3187
sg4
g5
sg6
g5
sg7
I00
sg8
F7464370.0
sg9
g5
sg10
S'john.sherriff@enron.com'
p175
sg12
I554422
sg13
g5
sg14
I2103
sg15
g5
sg16
I92
sg17
I1852186
sg18
g5
sg19
I1500000
sg20
I3128982
sg21
I28
sg22
F1.1666666666666667
sg23
I23
sg24
I1293424
sg25
I428780
sg26
I4335388
sg27
I1835558
sg28
F0.1370349845412981
sg29
F0.010936757013789824
ssS'SHELBY REX'
p176
(dp177
g3
I225
sg4
g5
sg6
I22884
sg7
I01
sg8
F4497501.0
sg9
I-4167
sg10
S'rex.shelby@enron.com'
p178
sg12
g5
sg13
g5
sg14
I91
sg15
g5
sg16
I39
sg17
I1573324
sg18
g5
sg19
I200000
sg20
I2493616
sg21
I13
sg22
F0.8666666666666667
sg23
I14
sg24
I869220
sg25
I211844
sg26
I2003885
sg27
I1624396
sg28
F0.08495453991312214
sg29
F0.15384615384615385
ssS'LEMAISTRE CHARLES'
p179
(dp180
g3
g5
sg4
g5
sg6
g5
sg7
I00
sg8
F500370.0
sg9
I-25000
sg10
g5
sg12
g5
sg13
g5
sg14
g5
sg15
g5
sg16
g5
sg17
g5
sg18
I112492
sg19
g5
sg20
I412878
sg21
g5
sg22
g32
sg23
g5
sg24
g5
sg25
g5
sg26
I87492
sg27
I412878
sg28
Fnan
sg29
g32
ssS'DEFFNER JOSEPH M'
p181
(dp182
g3
I714
sg4
g5
sg6
I41626
sg7
I00
sg8
F1367860.0
sg9
g5
sg10
S'joseph.deffner@enron.com'
p183
sg12
I335349
sg13
g5
sg14
I552
sg15
g5
sg16
I74
sg17
I25553
sg18
g5
sg19
I600000
sg20
I159211
sg21
I115
sg22
F23.0
sg23
I4
sg24
I141833
sg25
I206121
sg26
I1208649
sg27
I17378
sg28
F1.2946404456978475
sg29
F0.007246376811594203
ssS'KISHKILL JOSEPH G'
p184
(dp185
g3
g5
sg4
g5
sg6
I116335
sg7
I00
sg8
F1739242.0
sg9
I-51042
sg10
S'joe.kishkill@enron.com'
p186
sg12
g5
sg13
g5
sg14
g5
sg15
g5
sg16
g5
sg17
I465357
sg18
g5
sg19
g5
sg20
I1034346
sg21
g5
sg22
g32
sg23
g5
sg24
I1034346
sg25
I174246
sg26
I704896
sg27
g5
sg28
F0.1684600704213097
sg29
g32
ssS'WHALLEY LAWRENCE G'
p187
(dp188
g3
I6019
sg4
g5
sg6
I57838
sg7
I00
sg8
F10756711.0
sg9
g5
sg10
S'greg.whalley@enron.com'
p189
sg12
I808346
sg13
g5
sg14
I3920
sg15
g5
sg16
I556
sg17
I301026
sg18
g5
sg19
I3000000
sg20
I6079137
sg21
I186
sg22
F7.44
sg23
I24
sg24
I2796177
sg25
I510364
sg26
I4677574
sg27
I3282960
sg28
F0.08395336377515426
sg29
F0.006122448979591836
ssS'MCCONNELL MICHAEL S'
p190
(dp191
g3
I3329
sg4
g5
sg6
I81364
sg7
I00
sg8
F5202643.0
sg9
g5
sg10
S'mike.mcconnell@enron.com'
p192
sg12
I554422
sg13
g5
sg14
I2189
sg15
g5
sg16
I2742
sg17
I540
sg18
g5
sg19
I1100000
sg20
I3101279
sg21
I92
sg22
F0.4717948717948718
sg23
I194
sg24
I1478269
sg25
I365038
sg26
I2101364
sg27
I1623010
sg28
F0.11770563048342313
sg29
F0.08862494289629969
ssS'PIRO JIM'
p193
(dp194
g3
I58
sg4
g5
sg6
g5
sg7
I00
sg8
Fnan
sg9
g5
sg10
S'jim.piro@enron.com'
p195
sg12
g5
sg13
g5
sg14
I3
sg15
g5
sg16
I16
sg17
g5
sg18
g5
sg19
g5
sg20
I47304
sg21
I0
sg22
F0.0
sg23
I1
sg24
I47304
sg25
g5
sg26
g5
sg27
g5
sg28
Fnan
sg29
F0.3333333333333333
ssS'DELAINEY DAVID W'
p196
(dp197
g3
I3093
sg4
g5
sg6
I86174
sg7
I01
sg8
F8362240.0
sg9
g5
sg10
S'david.delainey@enron.com'
p198
sg12
I1294981
sg13
g5
sg14
I2097
sg15
g5
sg16
I3069
sg17
I1661
sg18
g5
sg19
I3000000
sg20
I3614261
sg21
I66
sg22
F0.10819672131147541
sg23
I609
sg24
I1323148
sg25
I365163
sg26
I4747979
sg27
I2291113
sg28
F0.10103393197115537
sg29
F0.290414878397711
ssS'SULLIVAN-SHAKLOVITZ COLLEEN'
p199
(dp200
g3
g5
sg4
I181993
sg6
g5
sg7
I00
sg8
F2361731.0
sg9
g5
sg10
g5
sg12
I554422
sg13
g5
sg14
g5
sg15
g5
sg16
g5
sg17
I162
sg18
g5
sg19
I100000
sg20
I1362375
sg21
g5
sg22
g32
sg23
g5
sg24
g5
sg25
I162779
sg26
I999356
sg27
I1362375
sg28
F0.11948178731993761
sg29
g32
ssS'WROBEL BRUCE'
p201
(dp202
g3
g5
sg4
g5
sg6
g5
sg7
I00
sg8
Fnan
sg9
g5
sg10
g5
sg12
g5
sg13
g5
sg14
g5
sg15
g5
sg16
g5
sg17
g5
sg18
g5
sg19
g5
sg20
I139130
sg21
g5
sg22
g32
sg23
g5
sg24
g5
sg25
g5
sg26
g5
sg27
I139130
sg28
Fnan
sg29
g32
ssS'LINDHOLM TOD A'
p203
(dp204
g3
g5
sg4
I204075
sg6
I57727
sg7
I00
sg8
F3940097.0
sg9
g5
sg10
S'tod.lindholm@enron.com'
p205
sg12
I175000
sg13
g5
sg14
g5
sg15
g5
sg16
g5
sg17
I2630
sg18
g5
sg19
I200000
sg20
I3064208
sg21
g5
sg22
g32
sg23
g5
sg24
I514847
sg25
I236457
sg26
I875889
sg27
I2549361
sg28
F0.07716741161174437
sg29
g32
ssS'MEYER JEROME J'
p206
(dp207
g3
g5
sg4
g5
sg6
I2151
sg7
I00
sg8
Fnan
sg9
I-38346
sg10
g5
sg12
g5
sg13
g5
sg14
g5
sg15
g5
sg16
g5
sg17
g5
sg18
I38346
sg19
g5
sg20
g5
sg21
g5
sg22
g32
sg23
g5
sg24
g5
sg25
g5
sg26
I2151
sg27
g5
sg28
g32
sg29
g32
ssS'LAY KENNETH L'
p208
(dp209
g3
I4273
sg4
I202911
sg6
I99832
sg7
I01
sg8
F152669871.0
sg9
I-300000
sg10
S'kenneth.lay@enron.com'
p210
sg12
I3600000
sg13
g5
sg14
I2411
sg15
I81525000
sg16
I36
sg17
I10359729
sg18
g5
sg19
I7000000
sg20
I49110078
sg21
I123
sg22
F7.235294117647059
sg23
I16
sg24
I14761694
sg25
I1072321
sg26
I103559793
sg27
I34348384
sg28
F0.021835049824192907
sg29
F0.006636250518457071
ssS'BUTTS ROBERT H'
p211
(dp212
g3
g5
sg4
g5
sg6
I9410
sg7
I00
sg8
F1689201.0
sg9
I-75000
sg10
S'bob.butts@enron.com'
p213
sg12
I175000
sg13
g5
sg14
g5
sg15
g5
sg16
g5
sg17
I150656
sg18
g5
sg19
I750000
sg20
I417619
sg21
g5
sg22
g32
sg23
g5
sg24
I417619
sg25
I261516
sg26
I1271582
sg27
g5
sg28
F0.626207140958625
sg29
g32
ssS'OLSON CINDY K'
p214
(dp215
g3
I1184
sg4
I77716
sg6
I63791
sg7
I00
sg8
F3928320.0
sg9
g5
sg10
S'cindy.olson@enron.com'
p216
sg12
I100000
sg13
g5
sg14
I856
sg15
g5
sg16
I52
sg17
I972
sg18
g5
sg19
I750000
sg20
I2606763
sg21
I20
sg22
F1.25
sg23
I15
sg24
I969729
sg25
I329078
sg26
I1321557
sg27
I1637034
sg28
F0.1262400916385571
sg29
F0.017523364485981307
ssS'MCDONALD REBECCA'
p217
(dp218
g3
I894
sg4
g5
sg6
g5
sg7
I00
sg8
Fnan
sg9
g5
sg10
S'rebecca.mcdonald@enron.com'
p219
sg12
g5
sg13
g5
sg14
I720
sg15
g5
sg16
I13
sg17
g5
sg18
g5
sg19
g5
sg20
I1691366
sg21
I54
sg22
F27.0
sg23
I1
sg24
I934065
sg25
g5
sg26
g5
sg27
I757301
sg28
Fnan
sg29
F0.001388888888888889
ssS'CUMBERLAND MICHAEL S'
p220
(dp221
g3
g5
sg4
g5
sg6
I22344
sg7
I00
sg8
F1015896.0
sg9
g5
sg10
g5
sg12
I275000
sg13
g5
sg14
g5
sg15
g5
sg16
g5
sg17
I713
sg18
g5
sg19
I325000
sg20
I207940
sg21
g5
sg22
g32
sg23
g5
sg24
I207940
sg25
I184899
sg26
I807956
sg27
g5
sg28
F0.8891939982687314
sg29
g32
ssS'GAHN ROBERT S'
p222
(dp223
g3
g5
sg4
I73122
sg6
I50080
sg7
I00
sg8
F1219192.0
sg9
I-1042
sg10
g5
sg12
g5
sg13
g5
sg14
g5
sg15
g5
sg16
g5
sg17
I76547
sg18
g5
sg19
I509870
sg20
I318607
sg21
g5
sg22
g32
sg23
g5
sg24
I235370
sg25
I192008
sg26
I900585
sg27
I83237
sg28
F0.6026484038329353
sg29
g32
ssS'MCCLELLAN GEORGE'
p224
(dp225
g3
I1744
sg4
g5
sg6
I228763
sg7
I00
sg8
F2266624.0
sg9
I-125000
sg10
S'george.mcclellan@enron.com'
p226
sg12
g5
sg13
g5
sg14
I1469
sg15
g5
sg16
I49
sg17
I51587
sg18
g5
sg19
I900000
sg20
I947861
sg21
I52
sg22
F52.0
sg23
I0
sg24
I441096
sg25
I263413
sg26
I1318763
sg27
I506765
sg28
F0.27790256166252225
sg29
F0.0
ssS'HERMANN ROBERT J'
p227
(dp228
g3
g5
sg4
g5
sg6
I48357
sg7
I00
sg8
F1965593.0
sg9
I-280000
sg10
S'robert.hermann@enron.com'
p229
sg12
I150000
sg13
g5
sg14
g5
sg15
g5
sg16
g5
sg17
I416441
sg18
g5
sg19
I700000
sg20
I668132
sg21
g5
sg22
g32
sg23
g5
sg24
I480632
sg25
I262663
sg26
I1297461
sg27
I187500
sg28
F0.393130399382158
sg29
g32
ssS'SCRIMSHAW MATTHEW'
p230
(dp231
g3
g5
sg4
g5
sg6
g5
sg7
I00
sg8
Fnan
sg9
g5
sg10
S'matthew.scrimshaw@enron.com'
p232
sg12
g5
sg13
g5
sg14
g5
sg15
g5
sg16
g5
sg17
g5
sg18
g5
sg19
g5
sg20
I759557
sg21
g5
sg22
g32
sg23
g5
sg24
g5
sg25
g5
sg26
g5
sg27
I759557
sg28
Fnan
sg29
g32
ssS'GATHMANN WILLIAM D'
p233
(dp234
g3
g5
sg4
g5
sg6
g5
sg7
I00
sg8
Fnan
sg9
g5
sg10
g5
sg12
g5
sg13
I-72419
sg14
g5
sg15
g5
sg16
g5
sg17
g5
sg18
g5
sg19
g5
sg20
I1945360
sg21
g5
sg22
g32
sg23
g5
sg24
I264013
sg25
g5
sg26
g5
sg27
I1753766
sg28
Fnan
sg29
g32
ssS'HAEDICKE MARK E'
p235
(dp236
g3
I4009
sg4
I2157527
sg6
I76169
sg7
I00
sg8
F4662159.0
sg9
I-934484
sg10
S'mark.haedicke@enron.com'
p237
sg12
I983346
sg13
I-329825
sg14
I1847
sg15
g5
sg16
I1941
sg17
I52382
sg18
g5
sg19
I1150000
sg20
I803094
sg21
I180
sg22
F2.903225806451613
sg23
I61
sg24
I524169
sg25
I374125
sg26
I3859065
sg27
I608750
sg28
F0.4658545574988731
sg29
F0.03302652950730915
ssS'BOWEN JR RAYMOND M'
p238
(dp239
g3
I1858
sg4
g5
sg6
I65907
sg7
I01
sg8
F2921644.0
sg9
I-833
sg10
S'raymond.bowen@enron.com'
p240
sg12
I974293
sg13
g5
sg14
I1593
sg15
g5
sg16
I27
sg17
I1621
sg18
g5
sg19
I1350000
sg20
I252055
sg21
I140
sg22
F8.75
sg23
I15
sg24
I252055
sg25
I278601
sg26
I2669589
sg27
g5
sg28
F1.105318283707921
sg29
F0.009416195856873822
ssS'GILLIS JOHN'
p241
(dp242
g3
g5
sg4
g5
sg6
g5
sg7
I00
sg8
Fnan
sg9
g5
sg10
g5
sg12
g5
sg13
g5
sg14
g5
sg15
g5
sg16
g5
sg17
g5
sg18
g5
sg19
g5
sg20
I85641
sg21
g5
sg22
g32
sg23
g5
sg24
I75838
sg25
g5
sg26
g5
sg27
I9803
sg28
Fnan
sg29
g32
ssS'FITZGERALD JAY L'
p243
(dp244
g3
I936
sg4
g5
sg6
I23870
sg7
I00
sg8
F3036093.0
sg9
g5
sg10
S'jay.fitzgerald@enron.com'
p245
sg12
I556416
sg13
g5
sg14
I723
sg15
g5
sg16
I16
sg17
I285414
sg18
g5
sg19
I350000
sg20
I1621236
sg21
I1
sg22
F0.1111111111111111
sg23
I8
sg24
I956775
sg25
I199157
sg26
I1414857
sg27
I664461
sg28
F0.12284269532628192
sg29
F0.011065006915629323
ssS'MORAN MICHAEL P'
p246
(dp247
g3
I672
sg4
g5
sg6
g5
sg7
I00
sg8
Fnan
sg9
g5
sg10
S'michael.moran@enron.com'
p248
sg12
g5
sg13
g5
sg14
I127
sg15
g5
sg16
I19
sg17
g5
sg18
g5
sg19
g5
sg20
I221141
sg21
I0
sg22
F0.0
sg23
I0
sg24
I161602
sg25
g5
sg26
g5
sg27
I59539
sg28
Fnan
sg29
F0.0
ssS'REDMOND BRIAN L'
p249
(dp250
g3
I1671
sg4
g5
sg6
I14689
sg7
I00
sg8
F8001853.0
sg9
g5
sg10
S'brian.redmond@enron.com'
p251
sg12
g5
sg13
g5
sg14
I1063
sg15
g5
sg16
I221
sg17
g5
sg18
g5
sg19
g5
sg20
I7890324
sg21
I204
sg22
F4.08
sg23
I49
sg24
I381285
sg25
I96840
sg26
I111529
sg27
I7509039
sg28
F0.012273260261555799
sg29
F0.04609595484477893
ssS'BAZELIDES PHILIP J'
p252
(dp253
g3
g5
sg4
I684694
sg6
g5
sg7
I00
sg8
F2459777.0
sg9
g5
sg10
g5
sg12
I93750
sg13
g5
sg14
g5
sg15
g5
sg16
g5
sg17
I874
sg18
g5
sg19
g5
sg20
I1599641
sg21
g5
sg22
g32
sg23
g5
sg24
g5
sg25
I80818
sg26
I860136
sg27
I1599641
sg28
F0.050522586005234925
sg29
g32
ssS'BELDEN TIMOTHY N'
p254
(dp255
g3
I7991
sg4
I2144013
sg6
I17355
sg7
I01
sg8
F6612335.0
sg9
I-2334434
sg10
S'tim.belden@enron.com'
p256
sg12
g5
sg13
g5
sg14
I5521
sg15
g5
sg16
I484
sg17
I210698
sg18
g5
sg19
I5249999
sg20
I1110705
sg21
I228
sg22
F2.091743119266055
sg23
I108
sg24
I157569
sg25
I213999
sg26
I5501630
sg27
I953136
sg28
F0.19266952070981944
sg29
F0.019561673609853288
ssS'DURAN WILLIAM D'
p257
(dp258
g3
I904
sg4
g5
sg6
I25785
sg7
I00
sg8
F3734173.0
sg9
g5
sg10
S'w.duran@enron.com'
p259
sg12
I1105218
sg13
g5
sg14
I599
sg15
g5
sg16
I12
sg17
I1568
sg18
g5
sg19
I750000
sg20
I1640910
sg21
I106
sg22
F26.5
sg23
I3
sg24
I189041
sg25
I210692
sg26
I2093263
sg27
I1451869
sg28
F0.12839948565125447
sg29
F0.005008347245409015
ssS'THORN TERENCE H'
p260
(dp261
g3
I266
sg4
I16586
sg6
I46145
sg7
I00
sg8
F5729249.0
sg9
g5
sg10
S'terence.thorn@enron.com'
p262
sg12
I200000
sg13
g5
sg14
I73
sg15
g5
sg16
I41
sg17
I426629
sg18
g5
sg19
g5
sg20
I4817796
sg21
I0
sg22
F0.0
sg23
I0
sg24
I365320
sg25
I222093
sg26
I911453
sg27
I4452476
sg28
F0.04609846494123039
sg29
F0.0
ssS'FASTOW ANDREW S'
p263
(dp264
g3
g5
sg4
g5
sg6
I55921
sg7
I01
sg8
F4218495.0
sg9
I-1386055
sg10
S'andrew.fastow@enron.com'
p265
sg12
I1736055
sg13
g5
sg14
g5
sg15
g5
sg16
g5
sg17
I277464
sg18
g5
sg19
I1300000
sg20
I1794412
sg21
g5
sg22
g32
sg23
g5
sg24
I1794412
sg25
I440698
sg26
I2424083
sg27
g5
sg28
F0.24559465719132506
sg29
g32
ssS'FOY JOE'
p266
(dp267
g3
I57
sg4
I181755
sg6
g5
sg7
I00
sg8
F525189.0
sg9
g5
sg10
S'tracy.foy@enron.com'
p268
sg12
g5
sg13
g5
sg14
I2
sg15
g5
sg16
I13
sg17
g5
sg18
g5
sg19
g5
sg20
I343434
sg21
I0
sg22
F0.0
sg23
I0
sg24
g5
sg25
g5
sg26
I181755
sg27
I343434
sg28
Fnan
sg29
F0.0
ssS'CALGER CHRISTOPHER F'
p269
(dp270
g3
I2598
sg4
g5
sg6
I35818
sg7
I01
sg8
F1765324.0
sg9
I-262500
sg10
S'christopher.calger@enron.com'
p271
sg12
I375304
sg13
g5
sg14
I2188
sg15
g5
sg16
I144
sg17
I486
sg18
g5
sg19
I1250000
sg20
I126027
sg21
I199
sg22
F7.653846153846154
sg23
I25
sg24
I126027
sg25
I240189
sg26
I1639297
sg27
g5
sg28
F1.9058535075817087
sg29
F0.011425959780621572
ssS'RICE KENNETH D'
p272
(dp273
g3
I905
sg4
g5
sg6
I46950
sg7
I01
sg8
F23047589.0
sg9
I-3504386
sg10
S'ken.rice@enron.com'
p274
sg12
I1617011
sg13
g5
sg14
I864
sg15
g5
sg16
I18
sg17
I174839
sg18
g5
sg19
I1750000
sg20
I22542539
sg21
I42
sg22
F8.4
sg23
I4
sg24
I2748364
sg25
I420636
sg26
I505050
sg27
I19794175
sg28
F0.01865965497497864
sg29
F0.004629629629629629
ssS'KAMINSKI WINCENTY J'
p275
(dp276
g3
I4607
sg4
g5
sg6
I83585
sg7
I00
sg8
F2062858.0
sg9
g5
sg10
S'vince.kaminski@enron.com'
p277
sg12
I323466
sg13
g5
sg14
I583
sg15
g5
sg16
I14368
sg17
I4669
sg18
g5
sg19
I400000
sg20
I976037
sg21
I41
sg22
F0.23837209302325582
sg23
I171
sg24
I126027
sg25
I275101
sg26
I1086821
sg27
I850010
sg28
F0.28185509360813166
sg29
F0.2933104631217839
ssS'COX DAVID'
p278
(dp279
g3
I102
sg4
g5
sg6
I27861
sg7
I00
sg8
F1597026.0
sg9
I-41250
sg10
S'chip.cox@enron.com'
p280
sg12
g5
sg13
g5
sg14
I71
sg15
g5
sg16
I33
sg17
I494
sg18
g5
sg19
I800000
sg20
I495633
sg21
I0
sg22
F0.0
sg23
I4
sg24
I378082
sg25
I314288
sg26
I1101393
sg27
I117551
sg28
F0.6341143547746013
sg29
F0.056338028169014086
ssS'OVERDYKE JR JERE C'
p281
(dp282
g3
g5
sg4
g5
sg6
I18834
sg7
I00
sg8
F7557381.0
sg9
g5
sg10
S'jere.overdyke@enron.com'
p283
sg12
I135836
sg13
g5
sg14
g5
sg15
g5
sg16
g5
sg17
I176
sg18
g5
sg19
g5
sg20
I7307594
sg21
g5
sg22
g32
sg23
g5
sg24
I2041016
sg25
I94941
sg26
I249787
sg27
I5266578
sg28
F0.012992101093738924
sg29
g32
ssS'PEREIRA PAULO V. FERRAZ'
p284
(dp285
g3
g5
sg4
g5
sg6
I27942
sg7
I00
sg8
Fnan
sg9
I-101250
sg10
g5
sg12
g5
sg13
g5
sg14
g5
sg15
g5
sg16
g5
sg17
g5
sg18
I101250
sg19
g5
sg20
g5
sg21
g5
sg22
g32
sg23
g5
sg24
g5
sg25
g5
sg26
I27942
sg27
g5
sg28
g32
sg29
g32
ssS'STABLER FRANK'
p286
(dp287
g3
g5
sg4
g5
sg6
I16514
sg7
I00
sg8
F1623821.0
sg9
g5
sg10
S'frank.stabler@enron.com'
p288
sg12
g5
sg13
g5
sg14
g5
sg15
g5
sg16
g5
sg17
I356071
sg18
g5
sg19
I500000
sg20
I511734
sg21
g5
sg22
g32
sg23
g5
sg24
I511734
sg25
I239502
sg26
I1112087
sg27
g5
sg28
F0.4680204950228048
sg29
g32
ssS'SKILLING JEFFREY K'
p289
(dp290
g3
I3627
sg4
g5
sg6
I29336
sg7
I01
sg8
F34776388.0
sg9
g5
sg10
S'jeff.skilling@enron.com'
p291
sg12
I1920000
sg13
g5
sg14
I2042
sg15
g5
sg16
I108
sg17
I22122
sg18
g5
sg19
I5600000
sg20
I26093672
sg21
I88
sg22
F2.838709677419355
sg23
I30
sg24
I6843672
sg25
I1111258
sg26
I8682716
sg27
I19250000
sg28
F0.04258726023688809
sg29
F0.014691478942213516
ssS'BLAKE JR. NORMAN P'
p292
(dp293
g3
g5
sg4
g5
sg6
I1279
sg7
I00
sg8
Fnan
sg9
I-113784
sg10
g5
sg12
g5
sg13
g5
sg14
g5
sg15
g5
sg16
g5
sg17
g5
sg18
I113784
sg19
g5
sg20
g5
sg21
g5
sg22
g32
sg23
g5
sg24
g5
sg25
g5
sg26
I1279
sg27
g5
sg28
g32
sg29
g32
ssS'SHERRICK JEFFREY B'
p294
(dp295
g3
I613
sg4
g5
sg6
g5
sg7
I00
sg8
Fnan
sg9
g5
sg10
S'jeffrey.sherrick@enron.com'
p296
sg12
g5
sg13
g5
sg14
I583
sg15
g5
sg16
I25
sg17
g5
sg18
g5
sg19
g5
sg20
I1832468
sg21
I39
sg22
F2.0526315789473686
sg23
I18
sg24
I405999
sg25
g5
sg26
g5
sg27
I1426469
sg28
Fnan
sg29
F0.030874785591766724
ssS'PRENTICE JAMES'
p297
(dp298
g3
g5
sg4
I564348
sg6
g5
sg7
I00
sg8
F1659388.0
sg9
g5
sg10
S'james.prentice@enron.com'
p299
sg12
g5
sg13
g5
sg14
g5
sg15
g5
sg16
g5
sg17
g5
sg18
g5
sg19
g5
sg20
I1095040
sg21
g5
sg22
g32
sg23
g5
sg24
I208809
sg25
g5
sg26
I564348
sg27
I886231
sg28
Fnan
sg29
g32
ssS'GRAY RODNEY'
p300
(dp301
g3
g5
sg4
I93585
sg6
g5
sg7
I00
sg8
Fnan
sg9
g5
sg10
g5
sg12
I365625
sg13
g5
sg14
g5
sg15
g5
sg16
g5
sg17
I680833
sg18
g5
sg19
g5
sg20
g5
sg21
g5
sg22
g32
sg23
g5
sg24
g5
sg25
I6615
sg26
I1146658
sg27
g5
sg28
Fnan
sg29
g32
ssS'PICKERING MARK R'
p302
(dp303
g3
I898
sg4
g5
sg6
I31653
sg7
I00
sg8
F1415488.0
sg9
g5
sg10
S'mark.pickering@enron.com'
p304
sg12
g5
sg13
g5
sg14
I728
sg15
I400000
sg16
I67
sg17
g5
sg18
g5
sg19
I300000
sg20
I28798
sg21
I7
sg22
F7.0
sg23
I0
sg24
g5
sg25
I655037
sg26
I1386690
sg27
I28798
sg28
F22.745919855545523
sg29
F0.0
ssS'NOLES JAMES L'
p305
(dp306
g3
g5
sg4
I774401
sg6
g5
sg7
I00
sg8
F1143106.0
sg9
g5
sg10
g5
sg12
g5
sg13
I-94556
sg14
g5
sg15
g5
sg16
g5
sg17
g5
sg18
g5
sg19
g5
sg20
I368705
sg21
g5
sg22
g32
sg23
g5
sg24
I463261
sg25
g5
sg26
I774401
sg27
g5
sg28
Fnan
sg29
g32
ssS'KEAN STEVEN J'
p307
(dp308
g3
I12754
sg4
g5
sg6
I41953
sg7
I00
sg8
F7901164.0
sg9
g5
sg10
S'steven.kean@enron.com'
p309
sg12
I300000
sg13
g5
sg14
I3639
sg15
g5
sg16
I6759
sg17
I1231
sg18
g5
sg19
I1000000
sg20
I6153642
sg21
I140
sg22
F0.36082474226804123
sg23
I387
sg24
I4131594
sg25
I404338
sg26
I1747522
sg27
I2022048
sg28
F0.06570710483320284
sg29
F0.10634789777411377
ssS'FOWLER PEGGY'
p310
(dp311
g3
I517
sg4
g5
sg6
g5
sg7
I00
sg8
Fnan
sg9
g5
sg10
S'kulvinder.fowler@enron.com'
p312
sg12
g5
sg13
g5
sg14
I10
sg15
g5
sg16
I36
sg17
g5
sg18
g5
sg19
g5
sg20
I1884748
sg21
I0
sg22
F0.0
sg23
I0
sg24
I560170
sg25
g5
sg26
g5
sg27
I1324578
sg28
Fnan
sg29
F0.0
ssS'WASAFF GEORGE'
p313
(dp314
g3
I400
sg4
I831299
sg6
g5
sg7
I00
sg8
F3090822.0
sg9
I-583325
sg10
S'george.wasaff@enron.com'
p315
sg12
I200000
sg13
g5
sg14
I337
sg15
g5
sg16
I30
sg17
I1425
sg18
g5
sg19
I325000
sg20
I2056427
sg21
I22
sg22
F2.75
sg23
I7
sg24
I388167
sg25
I259996
sg26
I1034395
sg27
I1668260
sg28
F0.12643094065580737
sg29
F0.020771513353115726
ssS'WHITE JR THOMAS E'
p316
(dp317
g3
g5
sg4
g5
sg6
I81353
sg7
I00
sg8
F17078482.0
sg9
g5
sg10
S'thomas.white@enron.com'
p318
sg12
g5
sg13
g5
sg14
g5
sg15
g5
sg16
g5
sg17
I1085463
sg18
g5
sg19
I450000
sg20
I15144123
sg21
g5
sg22
g32
sg23
g5
sg24
I13847074
sg25
I317543
sg26
I1934359
sg27
I1297049
sg28
F0.02096806794292413
sg29
g32
ssS'CHRISTODOULOU DIOMEDES'
p319
(dp320
g3
g5
sg4
g5
sg6
g5
sg7
I00
sg8
Fnan
sg9
g5
sg10
S'diomedes.christodoulou@enron.com'
p321
sg12
g5
sg13
g5
sg14
g5
sg15
g5
sg16
g5
sg17
g5
sg18
g5
sg19
g5
sg20
I6077885
sg21
g5
sg22
g32
sg23
g5
sg24
I950730
sg25
g5
sg26
g5
sg27
I5127155
sg28
Fnan
sg29
g32
ssS'ALLEN PHILLIP K'
p322
(dp323
g3
I2902
sg4
I2869717
sg6
I13868
sg7
I00
sg8
F6213983.0
sg9
I-3081055
sg10
S'phillip.allen@enron.com'
p324
sg12
I304805
sg13
I-126027
sg14
I1407
sg15
g5
sg16
I2195
sg17
I152
sg18
g5
sg19
I4175000
sg20
I1729541
sg21
I47
sg22
F0.7121212121212122
sg23
I65
sg24
I126027
sg25
I201955
sg26
I4484442
sg27
I1729541
sg28
F0.11676797485575653
sg29
F0.04619758351101635
ssS'SHARP VICTORIA T'
p325
(dp326
g3
I3136
sg4
I187469
sg6
I116337
sg7
I00
sg8
F2070647.0
sg9
g5
sg10
S'vicki.sharp@enron.com'
p327
sg12
I422158
sg13
g5
sg14
I2477
sg15
g5
sg16
I136
sg17
I2401
sg18
g5
sg19
I600000
sg20
I494136
sg21
I24
sg22
F3.4285714285714284
sg23
I6
sg24
I213063
sg25
I248146
sg26
I1576511
sg27
I281073
sg28
F0.5021815856363431
sg29
F0.0024222850222042794
ssS'JAEDICKE ROBERT'
p328
(dp329
g3
g5
sg4
g5
sg6
g5
sg7
I00
sg8
F515500.0
sg9
I-25000
sg10
g5
sg12
g5
sg13
I-44093
sg14
g5
sg15
g5
sg16
g5
sg17
g5
sg18
I108750
sg19
g5
sg20
I431750
sg21
g5
sg22
g32
sg23
g5
sg24
I44093
sg25
g5
sg26
I83750
sg27
I431750
sg28
Fnan
sg29
g32
ssS'WINOKUR JR. HERBERT S'
p330
(dp331
g3
g5
sg4
g5
sg6
I1413
sg7
I00
sg8
Fnan
sg9
I-25000
sg10
g5
sg12
g5
sg13
g5
sg14
g5
sg15
g5
sg16
g5
sg17
g5
sg18
I108579
sg19
g5
sg20
g5
sg21
g5
sg22
g32
sg23
g5
sg24
g5
sg25
g5
sg26
I84992
sg27
g5
sg28
g32
sg29
g32
ssS'BROWN MICHAEL'
p332
(dp333
g3
I1486
sg4
g5
sg6
I49288
sg7
I00
sg8
Fnan
sg9
g5
sg10
S'michael.brown@enron.com'
p334
sg12
g5
sg13
g5
sg14
I761
sg15
g5
sg16
I41
sg17
g5
sg18
g5
sg19
g5
sg20
g5
sg21
I13
sg22
F6.5
sg23
I1
sg24
g5
sg25
g5
sg26
I49288
sg27
g5
sg28
g32
sg29
F0.001314060446780552
ssS'BADUM JAMES P'
p335
(dp336
g3
g5
sg4
I178980
sg6
I3486
sg7
I00
sg8
F440283.0
sg9
g5
sg10
g5
sg12
g5
sg13
g5
sg14
g5
sg15
g5
sg16
g5
sg17
g5
sg18
g5
sg19
g5
sg20
I257817
sg21
g5
sg22
g32
sg23
g5
sg24
g5
sg25
g5
sg26
I182466
sg27
I257817
sg28
Fnan
sg29
g32
ssS'HUGHES JAMES A'
p337
(dp338
g3
I719
sg4
g5
sg6
g5
sg7
I00
sg8
Fnan
sg9
g5
sg10
S'james.hughes@enron.com'
p339
sg12
g5
sg13
g5
sg14
I589
sg15
g5
sg16
I34
sg17
g5
sg18
g5
sg19
g5
sg20
I1118394
sg21
I35
sg22
F5.833333333333333
sg23
I5
sg24
I363428
sg25
g5
sg26
g5
sg27
I754966
sg28
Fnan
sg29
F0.008488964346349746
ssS'REYNOLDS LAWRENCE'
p340
(dp341
g3
g5
sg4
I51365
sg6
I8409
sg7
I00
sg8
F4616366.0
sg9
I-200000
sg10
g5
sg12
I156250
sg13
I-140264
sg14
g5
sg15
g5
sg16
g5
sg17
I202052
sg18
g5
sg19
I100000
sg20
I4221891
sg21
g5
sg22
g32
sg23
g5
sg24
I201483
sg25
I76399
sg26
I394475
sg27
I4160672
sg28
F0.018095919577269994
sg29
g32
ssS'DIMICHELE RICHARD G'
p342
(dp343
g3
g5
sg4
g5
sg6
I35812
sg7
I00
sg8
F10685933.0
sg9
g5
sg10
S'richard.dimichele@enron.com'
p344
sg12
I694862
sg13
g5
sg14
g5
sg15
g5
sg16
g5
sg17
I374689
sg18
g5
sg19
I1000000
sg20
I8317782
sg21
g5
sg22
g32
sg23
g5
sg24
I126027
sg25
I262788
sg26
I2368151
sg27
I8191755
sg28
F0.03159351856059704
sg29
g32
ssS'BHATNAGAR SANJAY'
p345
(dp346
g3
I523
sg4
g5
sg6
g5
sg7
I00
sg8
Fnan
sg9
g5
sg10
S'sanjay.bhatnagar@enron.com'
p347
sg12
g5
sg13
I15456290
sg14
I463
sg15
g5
sg16
I29
sg17
I137864
sg18
I137864
sg19
g5
sS'total_stock_value'
p348
S'NaN'
p349
sg21
I0
sg22
F0.0
sg23
I1
sg24
I-2604490
sg25
g5
sg26
I15456290
sg27
I2604490
sg28
g32
sg29
F0.0021598272138228943
ssS'CARTER REBECCA C'
p350
(dp351
g3
I312
sg4
g5
sg6
g5
sg7
I00
sg8
Fnan
sg9
I-159792
sg10
S'rebecca.carter@enron.com'
p352
sg12
I75000
sg13
I-307301
sg14
I196
sg15
g5
sg16
I15
sg17
I540
sg18
g5
sg19
I300000
sg20
g5
sg21
I29
sg22
F3.625
sg23
I7
sg24
I307301
sg25
I261809
sg26
I477557
sg27
g5
sg28
Fnan
sg29
F0.03571428571428571
ssS'BUCHANAN HAROLD G'
p353
(dp354
g3
I1088
sg4
g5
sg6
I600
sg7
I00
sg8
F2069142.0
sg9
g5
sg10
S'john.buchanan@enron.com'
p355
sg12
I304805
sg13
g5
sg14
I23
sg15
g5
sg16
I125
sg17
I1215
sg18
g5
sg19
I500000
sg20
I1014505
sg21
I0
sg22
F0.0
sg23
I0
sg24
I189041
sg25
I248017
sg26
I1054637
sg27
I825464
sg28
F0.24447094888640272
sg29
F0.0
ssS'YEAP SOON'
p356
(dp357
g3
g5
sg4
g5
sg6
I55097
sg7
I00
sg8
F247855.0
sg9
g5
sg10
g5
sg12
g5
sg13
g5
sg14
g5
sg15
g5
sg16
g5
sg17
g5
sg18
g5
sg19
g5
sg20
I192758
sg21
g5
sg22
g32
sg23
g5
sg24
g5
sg25
g5
sg26
I55097
sg27
I192758
sg28
Fnan
sg29
g32
ssS'MURRAY JULIA H'
p358
(dp359
g3
I2192
sg4
g5
sg6
I57580
sg7
I00
sg8
F1409655.0
sg9
g5
sg10
S'julia.murray@enron.com'
p360
sg12
I125000
sg13
g5
sg14
I395
sg15
g5
sg16
I45
sg17
I330
sg18
g5
sg19
I400000
sg20
I597461
sg21
I11
sg22
F3.6666666666666665
sg23
I2
sg24
I196983
sg25
I229284
sg26
I812194
sg27
I400478
sg28
F0.38376396116231853
sg29
F0.005063291139240506
ssS'GARLAND C KEVIN'
p361
(dp362
g3
I209
sg4
g5
sg6
I48405
sg7
I00
sg8
F2462622.0
sg9
g5
sg10
S'kevin.garland@enron.com'
p363
sg12
I375304
sg13
g5
sg14
I178
sg15
g5
sg16
I44
sg17
I60814
sg18
g5
sg19
I850000
sg20
I896153
sg21
I10
sg22
F0.35714285714285715
sg23
I27
sg24
I259907
sg25
I231946
sg26
I1566469
sg27
I636246
sg28
F0.25882410704422126
sg29
F0.15168539325842698
ssS'DODSON KEITH'
p364
(dp365
g3
I176
sg4
g5
sg6
I28164
sg7
I00
sg8
Fnan
sg9
g5
sg10
S'keith.dodson@enron.com'
p366
sg12
g5
sg13
g5
sg14
I114
sg15
g5
sg16
I14
sg17
I774
sg18
g5
sg19
I70000
sg20
g5
sg21
I10
sg22
F2.5
sg23
I3
sg24
g5
sg25
I221003
sg26
I319941
sg27
g5
sg28
Fnan
sg29
F0.02631578947368421
ssS'YEAGER F SCOTT'
p367
(dp368
g3
g5
sg4
g5
sg6
I53947
sg7
I01
sg8
F12245058.0
sg9
g5
sg10
S'scott.yeager@enron.com'
p369
sg12
g5
sg13
g5
sg14
g5
sg15
g5
sg16
g5
sg17
I147950
sg18
g5
sg19
g5
sg20
I11884758
sg21
g5
sg22
g32
sg23
g5
sg24
I3576206
sg25
I158403
sg26
I360300
sg27
I8308552
sg28
F0.013328247828016355
sg29
g32
ssS'HIRKO JOSEPH'
p370
(dp371
g3
g5
sg4
I10259
sg6
I77978
sg7
I01
sg8
F30857157.0
sg9
g5
sg10
S'joe.hirko@enron.com'
p372
sg12
g5
sg13
g5
sg14
g5
sg15
g5
sg16
g5
sg17
I2856
sg18
g5
sg19
g5
sg20
I30766064
sg21
g5
sg22
g32
sg23
g5
sg24
g5
sg25
g5
sg26
I91093
sg27
I30766064
sg28
Fnan
sg29
g32
ssS'DIETRICH JANET R'
p373
(dp374
g3
I2572
sg4
g5
sg6
I3475
sg7
I00
sg8
F3275551.0
sg9
g5
sg10
S'janet.dietrich@enron.com'
p375
sg12
I556416
sg13
g5
sg14
I1902
sg15
g5
sg16
I63
sg17
I473
sg18
g5
sg19
I600000
sg20
I1865087
sg21
I305
sg22
F20.333333333333332
sg23
I14
sg24
I315068
sg25
I250100
sg26
I1410464
sg27
I1550019
sg28
F0.13409562127664823
sg29
F0.007360672975814932
ssS'DERRICK JR. JAMES V'
p376
(dp377
g3
I2181
sg4
g5
sg6
I51124
sg7
I00
sg8
F9382894.0
sg9
I-1284000
sg10
S'james.derrick@enron.com'
p378
sg12
I484000
sg13
I-1787380
sg14
I1401
sg15
g5
sg16
I909
sg17
I7482
sg18
g5
sg19
I800000
sg20
I8831913
sg21
I64
sg22
F3.0476190476190474
sg23
I20
sg24
I1787380
sg25
I492375
sg26
I550981
sg27
I8831913
sg28
F0.05574953014143142
sg29
F0.014275517487508922
ssS'FREVERT MARK A'
p379
(dp380
g3
I3275
sg4
I6426990
sg6
I86987
sg7
I00
sg8
F31874715.0
sg9
I-3367011
sg10
S'mark.frevert@enron.com'
p381
sg12
I1617011
sg13
g5
sg14
I2979
sg15
I2000000
sg16
I21
sg17
I7427621
sg18
g5
sg19
I2000000
sg20
I14622185
sg21
I242
sg22
F34.57142857142857
sg23
I6
sg24
I4188667
sg25
I1060932
sg26
I17252530
sg27
I10433518
sg28
F0.07255632451647959
sg29
F0.002014098690835851
ssS'PAI LOU L'
p382
(dp383
g3
g5
sg4
g5
sg6
I32047
sg7
I00
sg8
F26941313.0
sg9
g5
sg10
S'lou.pai@enron.com'
p384
sg12
g5
sg13
g5
sg14
g5
sg15
g5
sg16
g5
sg17
I1829457
sg18
g5
sg19
I1000000
sg20
I23817930
sg21
g5
sg22
g32
sg23
g5
sg24
I8453763
sg25
I261879
sg26
I3123383
sg27
I15364167
sg28
F0.010995036092557161
sg29
g32
ssS'BAY FRANKLIN R'
p385
(dp386
g3
g5
sg4
I260455
sg6
I129142
sg7
I00
sg8
F890710.0
sg9
I-201641
sg10
S'frank.bay@enron.com'
p387
sg12
g5
sg13
I-82782
sg14
g5
sg15
g5
sg16
g5
sg17
I69
sg18
g5
sg19
I400000
sg20
I63014
sg21
g5
sg22
g32
sg23
g5
sg24
I145796
sg25
I239671
sg26
I827696
sg27
g5
sg28
F3.8034563747738597
sg29
g32
ssS'HAYSLETT RODERICK J'
p388
(dp389
g3
I2649
sg4
g5
sg6
g5
sg7
I00
sg8
Fnan
sg9
g5
sg10
S'rod.hayslett@enron.com'
p390
sg12
g5
sg13
g5
sg14
I571
sg15
g5
sg16
I1061
sg17
g5
sg18
g5
sg19
g5
sg20
I346663
sg21
I35
sg22
F0.8974358974358975
sg23
I38
sg24
I346663
sg25
g5
sg26
g5
sg27
g5
sg28
Fnan
sg29
F0.06654991243432574
ssS'FUGH JOHN L'
p391
(dp392
g3
g5
sg4
I50591
sg6
g5
sg7
I00
sg8
F226969.0
sg9
g5
sg10
g5
sg12
g5
sg13
g5
sg14
g5
sg15
g5
sg16
g5
sg17
g5
sg18
g5
sg19
g5
sg20
I176378
sg21
g5
sg22
g32
sg23
g5
sg24
g5
sg25
g5
sg26
I50591
sg27
I176378
sg28
Fnan
sg29
g32
ssS'FALLON JAMES B'
p393
(dp394
g3
I1755
sg4
g5
sg6
I95924
sg7
I00
sg8
F6008739.0
sg9
g5
sg10
S'jim.fallon@enron.com'
p395
sg12
I374347
sg13
g5
sg14
I1604
sg15
g5
sg16
I75
sg17
I401481
sg18
g5
sg19
I2500000
sg20
I2332399
sg21
I42
sg22
F1.105263157894737
sg23
I37
sg24
I1392142
sg25
I304588
sg26
I3676340
sg27
I940257
sg28
F0.13059000625536196
sg29
F0.023067331670822942
ssS'KOENIG MARK E'
p396
(dp397
g3
I2374
sg4
g5
sg6
I127017
sg7
I01
sg8
F3507476.0
sg9
g5
sg10
S'mark.koenig@enron.com'
p398
sg12
I300000
sg13
g5
sg14
I2271
sg15
g5
sg16
I61
sg17
I150458
sg18
g5
sg19
I700000
sg20
I1920055
sg21
I53
sg22
F3.3125
sg23
I15
sg24
I1248318
sg25
I309946
sg26
I1587421
sg27
I671737
sg28
F0.16142558416295366
sg29
F0.0066050198150594455
ssS'SAVAGE FRANK'
p399
(dp400
g3
g5
sg4
g5
sg6
g5
sg7
I00
sg8
Fnan
sg9
I-121284
sg10
g5
sg12
g5
sg13
g5
sg14
g5
sg15
g5
sg16
g5
sg17
g5
sg18
I125034
sg19
g5
sg20
g5
sg21
g5
sg22
g32
sg23
g5
sg24
g5
sg25
g5
sg26
I3750
sg27
g5
sg28
g32
sg29
g32
ssS'IZZO LAWRENCE L'
p401
(dp402
g3
I496
sg4
g5
sg6
I28093
sg7
I00
sg8
F7799576.0
sg9
g5
sg10
S'larry.izzo@enron.com'
p403
sg12
I312500
sg13
g5
sg14
I437
sg15
g5
sg16
I19
sg17
I1553729
sg18
g5
sg19
g5
sg20
I5819980
sg21
I28
sg22
F4.666666666666667
sg23
I5
sg24
I3654808
sg25
I85274
sg26
I1979596
sg27
I2165172
sg28
F0.014651940384674862
sg29
F0.011441647597254004
ssS'TILNEY ELIZABETH A'
p404
(dp405
g3
I460
sg4
g5
sg6
g5
sg7
I00
sg8
F1567435.0
sg9
I-575000
sg10
S'elizabeth.tilney@enron.com'
p406
sg12
I275000
sg13
g5
sg14
I379
sg15
g5
sg16
I19
sg17
I152055
sg18
g5
sg19
I300000
sg20
I1168042
sg21
I10
sg22
F0.8333333333333334
sg23
I11
sg24
I576792
sg25
I247338
sg26
I399393
sg27
I591250
sg28
F0.21175437184621787
sg29
F0.029023746701846966
ssS'MARTIN AMANDA K'
p407
(dp408
g3
I1522
sg4
I85430
sg6
I8211
sg7
I00
sg8
F10477322.0
sg9
g5
sg10
S'a..martin@enron.com'
p409
sg12
I5145434
sg13
g5
sg14
I477
sg15
g5
sg16
I230
sg17
I2818454
sg18
g5
sg19
g5
sg20
I2070306
sg21
I8
sg22
F8.0
sg23
I0
sg24
g5
sg25
I349487
sg26
I8407016
sg27
I2070306
sg28
F0.16880934509198156
sg29
F0.0
ssS'BUY RICHARD B'
p410
(dp411
g3
I3523
sg4
I649584
sg6
g5
sg7
I00
sg8
F5800172.0
sg9
I-694862
sg10
S'rick.buy@enron.com'
p412
sg12
I769862
sg13
g5
sg14
I2333
sg15
g5
sg16
I1053
sg17
I400572
sg18
g5
sg19
I900000
sg20
I3444470
sg21
I156
sg22
F2.1666666666666665
sg23
I71
sg24
I901657
sg25
I330546
sg26
I2355702
sg27
I2542813
sg28
F0.09596425574907025
sg29
F0.030432918988426916
ssS'GRAMM WENDY L'
p413
(dp414
g3
g5
sg4
g5
sg6
g5
sg7
I00
sg8
Fnan
sg9
g5
sg10
g5
sg12
g5
sg13
g5
sg14
g5
sg15
g5
sg16
g5
sg17
g5
sg18
I119292
sg19
g5
sg20
g5
sg21
g5
sg22
g32
sg23
g5
sg24
g5
sg25
g5
sg26
I119292
sg27
g5
sg28
g32
sg29
g32
ssS'CAUSEY RICHARD A'
p415
(dp416
g3
I1892
sg4
g5
sg6
I30674
sg7
I01
sg8
F4370821.0
sg9
I-235000
sg10
S'richard.causey@enron.com'
p417
sg12
I350000
sg13
g5
sg14
I1585
sg15
g5
sg16
I49
sg17
I307895
sg18
g5
sg19
I1000000
sg20
I2502063
sg21
I58
sg22
F4.461538461538462
sg23
I12
sg24
I2502063
sg25
I415189
sg26
I1868758
sg27
g5
sg28
F0.1659386674116519
sg29
F0.007570977917981073
ssS'TAYLOR MITCHELL S'
p418
(dp419
g3
I533
sg4
I227449
sg6
g5
sg7
I00
sg8
F4837711.0
sg9
g5
sg10
S'mitchell.taylor@enron.com'
p420
sg12
g5
sg13
g5
sg14
I300
sg15
g5
sg16
I29
sg17
g5
sg18
g5
sg19
I600000
sg20
I3745048
sg21
I0
sg22
F0.0
sg23
I0
sg24
I563798
sg25
I265214
sg26
I1092663
sg27
I3181250
sg28
F0.07081724987236479
sg29
F0.0
ssS'DONAHUE JR JEFFREY M'
p421
(dp422
g3
I865
sg4
g5
sg6
I96268
sg7
I00
sg8
F1956748.0
sg9
I-300000
sg10
S'jeff.donahue@enron.com'
p423
sg12
g5
sg13
g5
sg14
I772
sg15
g5
sg16
I22
sg17
I891
sg18
g5
sg19
I800000
sg20
I1080988
sg21
I188
sg22
F15.666666666666666
sg23
I11
sg24
I315068
sg25
I278601
sg26
I875760
sg27
I765920
sg28
F0.25772811539073515
sg29
F0.014248704663212436
ssS'GLISAN JR BEN F'
p424
(dp425
g3
I873
sg4
g5
sg6
I125978
sg7
I01
sg8
F2050830.0
sg9
g5
sg10
S'ben.glisan@enron.com'
p426
sg12
I71023
sg13
g5
sg14
I874
sg15
g5
sg16
I16
sg17
I200308
sg18
g5
sg19
I600000
sg20
I778546
sg21
I52
sg22
F7.428571428571429
sg23
I6
sg24
I393818
sg25
I274975
sg26
I1272284
sg27
I384728
sg28
F0.35319043447657555
sg29
F0.006864988558352402
ss.